target datalayout = "e-m:e-p270:32:32-p271:32:32-p272:64:64-i64:64-i128:128-f80:128-n8:16:32:64-S128"
target triple = "x86_64-pc-linux-gnu"

%"class.std::__shared_count" = type { ptr }
%"class.Assimp::StreamReader" = type <{ %"class.std::shared_ptr.20", ptr, ptr, ptr, ptr, i8, [7 x i8] }>
%"class.std::shared_ptr.20" = type { %"class.std::__shared_ptr.21" }
%"class.std::__shared_ptr.21" = type { ptr, %"class.std::__shared_count" }
%"struct.Assimp::Intern::Getter" = type { i8 }
%"struct.Assimp::Intern::ByteSwapper" = type { i8 }

@_ZTI17DeadlyImportError = linkonce_odr constant { ptr, ptr, ptr } { ptr getelementptr inbounds (ptr, ptr @_ZTVN10__cxxabiv120__si_class_type_infoE, i64 2), ptr @_ZTS17DeadlyImportError, ptr @_ZTI15DeadlyErrorBase }, comdat, align 8
@.str.29 = private unnamed_addr constant [40 x i8] c"End of file or stream limit was reached\00", align 1

; Function Attrs: mustprogress nounwind uwtable
define linkonce_odr hidden void @_ZN6Assimp6Intern11ByteSwapperIaLb0EEclEPa(ptr noundef nonnull align 1 dereferenceable(1) %0, ptr noundef %1) #2 comdat align 2 {
  %3 = alloca ptr, align 8
  %4 = alloca ptr, align 8
  store ptr %0, ptr %3, align 8
  store ptr %1, ptr %4, align 8
  ret void
}

; Function Attrs: mustprogress uwtable
define linkonce_odr hidden void @_ZN6Assimp6Intern6GetterILb1EaLb1EEclEPab(ptr noundef nonnull align 1 dereferenceable(1) %0, ptr noundef %1, i1 noundef zeroext %2) #0 comdat align 2 {
  %4 = alloca ptr, align 8
  %5 = alloca ptr, align 8
  %6 = alloca i8, align 1
  %7 = alloca %"struct.Assimp::Intern::ByteSwapper", align 1
  %8 = alloca %"struct.Assimp::Intern::ByteSwapper", align 1
  store ptr %0, ptr %4, align 8
  store ptr %1, ptr %5, align 8
  %9 = zext i1 %2 to i8
  store i8 %9, ptr %6, align 1
  %10 = load i8, ptr %6, align 1, !range !9, !noundef !10
  %11 = trunc i8 %10 to i1
  %12 = xor i1 %11, true
  %13 = zext i1 %12 to i8
  store i8 %13, ptr %6, align 1
  %14 = load i8, ptr %6, align 1, !range !9, !noundef !10
  %15 = trunc i8 %14 to i1
  br i1 %15, label %16, label %18

16:                                               ; preds = %3
  call void @llvm.lifetime.start.p0(i64 1, ptr %7) #18
  %17 = load ptr, ptr %5, align 8
  call void @_ZN6Assimp6Intern11ByteSwapperIaLb0EEclEPa(ptr noundef nonnull align 1 dereferenceable(1) %7, ptr noundef %17)
  call void @llvm.lifetime.end.p0(i64 1, ptr %7) #18
  br label %20

18:                                               ; preds = %3
  call void @llvm.lifetime.start.p0(i64 1, ptr %8) #18
  %19 = load ptr, ptr %5, align 8
  call void @_ZN6Assimp6Intern11ByteSwapperIaLb0EEclEPa(ptr noundef nonnull align 1 dereferenceable(1) %8, ptr noundef %19)
  call void @llvm.lifetime.end.p0(i64 1, ptr %8) #18
  br label %20

20:                                               ; preds = %18, %16
  ret void
}

; Function Attrs: mustprogress uwtable
define linkonce_odr hidden noundef signext i8 @_ZN6Assimp12StreamReaderILb1ELb1EE3GetIaEET_v(ptr noundef nonnull align 8 dereferenceable(49) %0) #0 comdat align 2 personality ptr @__gxx_personality_v0 {
  %2 = alloca ptr, align 8
  %3 = alloca ptr, align 8
  %4 = alloca i32, align 4
  %5 = alloca i8, align 1
  %6 = alloca %"struct.Assimp::Intern::Getter", align 1
  store ptr %0, ptr %2, align 8
  %7 = load ptr, ptr %2, align 8
  %8 = getelementptr inbounds nuw %"class.Assimp::StreamReader", ptr %7, i32 0, i32 2
  %9 = load ptr, ptr %8, align 8
  %10 = getelementptr inbounds nuw i8, ptr %9, i64 1
  %11 = getelementptr inbounds nuw %"class.Assimp::StreamReader", ptr %7, i32 0, i32 4
  %12 = load ptr, ptr %11, align 8
  %13 = icmp ugt ptr %10, %12
  br i1 %13, label %14, label %21

14:                                               ; preds = %1
  %15 = call ptr @__cxa_allocate_exception(i64 16) #18
  invoke void @_ZN17DeadlyImportErrorC2EPKc(ptr noundef nonnull align 8 dereferenceable(16) %15, ptr noundef @.str.29)
          to label %16 unwind label %17

16:                                               ; preds = %14
  call void @__cxa_throw(ptr %15, ptr @_ZTI17DeadlyImportError, ptr @_ZNSt13runtime_errorD2Ev) #19
  unreachable

17:                                               ; preds = %14
  %18 = landingpad { ptr, i32 }
          cleanup
  %19 = extractvalue { ptr, i32 } %18, 0
  store ptr %19, ptr %3, align 8
  %20 = extractvalue { ptr, i32 } %18, 1
  store i32 %20, ptr %4, align 4
  call void @__cxa_free_exception(ptr %15) #18
  br label %31

21:                                               ; preds = %1
  call void @llvm.lifetime.start.p0(i64 1, ptr %5) #18
  %22 = getelementptr inbounds nuw %"class.Assimp::StreamReader", ptr %7, i32 0, i32 2
  %23 = load ptr, ptr %22, align 8
  call void @llvm.memcpy.p0.p0.i64(ptr align 1 %5, ptr align 1 %23, i64 1, i1 false)
  call void @llvm.lifetime.start.p0(i64 1, ptr %6) #18
  %24 = getelementptr inbounds nuw %"class.Assimp::StreamReader", ptr %7, i32 0, i32 5
  %25 = load i8, ptr %24, align 8, !range !9, !noundef !10
  %26 = trunc i8 %25 to i1
  call void @_ZN6Assimp6Intern6GetterILb1EaLb1EEclEPab(ptr noundef nonnull align 1 dereferenceable(1) %6, ptr noundef %5, i1 noundef zeroext %26)
  call void @llvm.lifetime.end.p0(i64 1, ptr %6) #18
  %27 = getelementptr inbounds nuw %"class.Assimp::StreamReader", ptr %7, i32 0, i32 2
  %28 = load ptr, ptr %27, align 8
  %29 = getelementptr inbounds nuw i8, ptr %28, i64 1
  store ptr %29, ptr %27, align 8
  %30 = load i8, ptr %5, align 1
  call void @llvm.lifetime.end.p0(i64 1, ptr %5) #18
  ret i8 %30

31:                                               ; preds = %17
  %32 = load ptr, ptr %3, align 8
  %33 = load i32, ptr %4, align 4
  %34 = insertvalue { ptr, i32 } poison, ptr %32, 0
  %35 = insertvalue { ptr, i32 } %34, i32 %33, 1
  resume { ptr, i32 } %35
}

; Function Attrs: mustprogress uwtable
define linkonce_odr hidden noundef signext i8 @_ZN6Assimp12StreamReaderILb1ELb1EE5GetI1Ev(ptr noundef nonnull align 8 dereferenceable(49) %0) #0 comdat align 2 {
  %2 = alloca ptr, align 8
  store ptr %0, ptr %2, align 8
  %3 = load ptr, ptr %2, align 8
  %4 = call noundef signext i8 @_ZN6Assimp12StreamReaderILb1ELb1EE3GetIaEET_v(ptr noundef nonnull align 8 dereferenceable(49) %3)
  ret i8 %4
}

; Function Attrs: mustprogress uwtable
define internal noundef zeroext i1 @_ZL6match4RN6Assimp12StreamReaderILb1ELb1EEEPKc(ptr noundef nonnull align 8 dereferenceable(49) %0, ptr noundef %1) #0 {
  %3 = alloca ptr, align 8
  %4 = alloca ptr, align 8
  %5 = alloca [4 x i8], align 1
  store ptr %0, ptr %3, align 8
  store ptr %1, ptr %4, align 8
  call void @llvm.lifetime.start.p0(i64 4, ptr %5) #18
  %6 = load ptr, ptr %3, align 8
  %7 = call noundef signext i8 @_ZN6Assimp12StreamReaderILb1ELb1EE5GetI1Ev(ptr noundef nonnull align 8 dereferenceable(49) %6)
  %8 = getelementptr inbounds [4 x i8], ptr %5, i64 0, i64 0
  store i8 %7, ptr %8, align 1
  %9 = load ptr, ptr %3, align 8
  %10 = call noundef signext i8 @_ZN6Assimp12StreamReaderILb1ELb1EE5GetI1Ev(ptr noundef nonnull align 8 dereferenceable(49) %9)
  %11 = getelementptr inbounds [4 x i8], ptr %5, i64 0, i64 1
  store i8 %10, ptr %11, align 1
  %12 = load ptr, ptr %3, align 8
  %13 = call noundef signext i8 @_ZN6Assimp12StreamReaderILb1ELb1EE5GetI1Ev(ptr noundef nonnull align 8 dereferenceable(49) %12)
  %14 = getelementptr inbounds [4 x i8], ptr %5, i64 0, i64 2
  store i8 %13, ptr %14, align 1
  %15 = load ptr, ptr %3, align 8
  %16 = call noundef signext i8 @_ZN6Assimp12StreamReaderILb1ELb1EE5GetI1Ev(ptr noundef nonnull align 8 dereferenceable(49) %15)
  %17 = getelementptr inbounds [4 x i8], ptr %5, i64 0, i64 3
  store i8 %16, ptr %17, align 1
  %18 = getelementptr inbounds [4 x i8], ptr %5, i64 0, i64 0
  %19 = load i8, ptr %18, align 1
  %20 = sext i8 %19 to i32
  %21 = load ptr, ptr %4, align 8
  %22 = getelementptr inbounds i8, ptr %21, i64 0
  %23 = load i8, ptr %22, align 1
  %24 = sext i8 %23 to i32
  %25 = icmp eq i32 %20, %24
  br i1 %25, label %26, label %53

26:                                               ; preds = %2
  %27 = getelementptr inbounds [4 x i8], ptr %5, i64 0, i64 1
  %28 = load i8, ptr %27, align 1
  %29 = sext i8 %28 to i32
  %30 = load ptr, ptr %4, align 8
  %31 = getelementptr inbounds i8, ptr %30, i64 1
  %32 = load i8, ptr %31, align 1
  %33 = sext i8 %32 to i32
  %34 = icmp eq i32 %29, %33
  br i1 %34, label %35, label %53

35:                                               ; preds = %26
  %36 = getelementptr inbounds [4 x i8], ptr %5, i64 0, i64 2
  %37 = load i8, ptr %36, align 1
  %38 = sext i8 %37 to i32
  %39 = load ptr, ptr %4, align 8
  %40 = getelementptr inbounds i8, ptr %39, i64 2
  %41 = load i8, ptr %40, align 1
  %42 = sext i8 %41 to i32
  %43 = icmp eq i32 %38, %42
  br i1 %43, label %44, label %53

44:                                               ; preds = %35
  %45 = getelementptr inbounds [4 x i8], ptr %5, i64 0, i64 3
  %46 = load i8, ptr %45, align 1
  %47 = sext i8 %46 to i32
  %48 = load ptr, ptr %4, align 8
  %49 = getelementptr inbounds i8, ptr %48, i64 3
  %50 = load i8, ptr %49, align 1
  %51 = sext i8 %50 to i32
  %52 = icmp eq i32 %47, %51
  br label %53

53:                                               ; preds = %44, %35, %26, %2
  %54 = phi i1 [ false, %35 ], [ false, %26 ], [ false, %2 ], [ %52, %44 ]
  call void @llvm.lifetime.end.p0(i64 4, ptr %5) #18
  ret i1 %54
}