; Function Attrs: mustprogress uwtable
define internal fastcc noundef zeroext i1 @_ZL6match4RN6Assimp12StreamReaderILb1ELb1EEEPKc(ptr noundef nonnull align 8 captures(none) dereferenceable(49) %0, ptr noundef readonly captures(none) %1) unnamed_addr #0 personality ptr @__gxx_personality_v0 {
  %3 = getelementptr inbounds nuw i8, ptr %0, i64 24
  %4 = load ptr, ptr %3, align 8
  %5 = getelementptr inbounds nuw i8, ptr %4, i64 1
  %6 = getelementptr inbounds nuw i8, ptr %0, i64 40
  %7 = load ptr, ptr %6, align 8
  %8 = icmp ugt ptr %5, %7
  br i1 %8, label %9, label %_ZN6Assimp12StreamReaderILb1ELb1EE5GetI1Ev.exit

9:                                                ; preds = %2
  %10 = tail call ptr @__cxa_allocate_exception(i64 16) #21
  invoke void @_ZN17DeadlyImportErrorC2EPKc(ptr noundef nonnull align 8 dereferenceable(16) %10, ptr noundef nonnull @.str.29)
          to label %11 unwind label %12

11:                                               ; preds = %9
  tail call void @__cxa_throw(ptr nonnull %10, ptr nonnull @_ZTI17DeadlyImportError, ptr nonnull @_ZNSt13runtime_errorD2Ev) #22
  unreachable

common.resume:                                    ; preds = %36, %28, %20, %12
  %.sink = phi ptr [ %34, %36 ], [ %26, %28 ], [ %18, %20 ], [ %10, %12 ]
  %common.resume.op = phi { ptr, i32 } [ %37, %36 ], [ %29, %28 ], [ %21, %20 ], [ %13, %12 ]
  tail call void @__cxa_free_exception(ptr nonnull %.sink) #21
  resume { ptr, i32 } %common.resume.op

12:                                               ; preds = %9
  %13 = landingpad { ptr, i32 }
          cleanup
  br label %common.resume

_ZN6Assimp12StreamReaderILb1ELb1EE5GetI1Ev.exit:  ; preds = %2
  %14 = load i8, ptr %4, align 1
  store ptr %5, ptr %3, align 8
  %15 = getelementptr inbounds nuw i8, ptr %4, i64 2
  %16 = icmp ugt ptr %15, %7
  br i1 %16, label %17, label %_ZN6Assimp12StreamReaderILb1ELb1EE5GetI1Ev.exit8

17:                                               ; preds = %_ZN6Assimp12StreamReaderILb1ELb1EE5GetI1Ev.exit
  %18 = tail call ptr @__cxa_allocate_exception(i64 16) #21
  invoke void @_ZN17DeadlyImportErrorC2EPKc(ptr noundef nonnull align 8 dereferenceable(16) %18, ptr noundef nonnull @.str.29)
          to label %19 unwind label %20

19:                                               ; preds = %17
  tail call void @__cxa_throw(ptr nonnull %18, ptr nonnull @_ZTI17DeadlyImportError, ptr nonnull @_ZNSt13runtime_errorD2Ev) #22
  unreachable

20:                                               ; preds = %17
  %21 = landingpad { ptr, i32 }
          cleanup
  br label %common.resume

_ZN6Assimp12StreamReaderILb1ELb1EE5GetI1Ev.exit8: ; preds = %_ZN6Assimp12StreamReaderILb1ELb1EE5GetI1Ev.exit
  %22 = load i8, ptr %5, align 1
  store ptr %15, ptr %3, align 8
  %23 = getelementptr inbounds nuw i8, ptr %4, i64 3
  %24 = icmp ugt ptr %23, %7
  br i1 %24, label %25, label %_ZN6Assimp12StreamReaderILb1ELb1EE5GetI1Ev.exit9

25:                                               ; preds = %_ZN6Assimp12StreamReaderILb1ELb1EE5GetI1Ev.exit8
  %26 = tail call ptr @__cxa_allocate_exception(i64 16) #21
  invoke void @_ZN17DeadlyImportErrorC2EPKc(ptr noundef nonnull align 8 dereferenceable(16) %26, ptr noundef nonnull @.str.29)
          to label %27 unwind label %28

27:                                               ; preds = %25
  tail call void @__cxa_throw(ptr nonnull %26, ptr nonnull @_ZTI17DeadlyImportError, ptr nonnull @_ZNSt13runtime_errorD2Ev) #22
  unreachable

28:                                               ; preds = %25
  %29 = landingpad { ptr, i32 }
          cleanup
  br label %common.resume

_ZN6Assimp12StreamReaderILb1ELb1EE5GetI1Ev.exit9: ; preds = %_ZN6Assimp12StreamReaderILb1ELb1EE5GetI1Ev.exit8
  %30 = load i8, ptr %15, align 1
  store ptr %23, ptr %3, align 8
  %31 = getelementptr inbounds nuw i8, ptr %4, i64 4
  %32 = icmp ugt ptr %31, %7
  br i1 %32, label %33, label %_ZN6Assimp12StreamReaderILb1ELb1EE5GetI1Ev.exit10

33:                                               ; preds = %_ZN6Assimp12StreamReaderILb1ELb1EE5GetI1Ev.exit9
  %34 = tail call ptr @__cxa_allocate_exception(i64 16) #21
  invoke void @_ZN17DeadlyImportErrorC2EPKc(ptr noundef nonnull align 8 dereferenceable(16) %34, ptr noundef nonnull @.str.29)
          to label %35 unwind label %36

35:                                               ; preds = %33
  tail call void @__cxa_throw(ptr nonnull %34, ptr nonnull @_ZTI17DeadlyImportError, ptr nonnull @_ZNSt13runtime_errorD2Ev) #22
  unreachable

36:                                               ; preds = %33
  %37 = landingpad { ptr, i32 }
          cleanup
  br label %common.resume

_ZN6Assimp12StreamReaderILb1ELb1EE5GetI1Ev.exit10: ; preds = %_ZN6Assimp12StreamReaderILb1ELb1EE5GetI1Ev.exit9
  %38 = load i8, ptr %23, align 1
  store ptr %31, ptr %3, align 8
  %39 = load i8, ptr %1, align 1
  %40 = icmp eq i8 %14, %39
  br i1 %40, label %41, label %53

41:                                               ; preds = %_ZN6Assimp12StreamReaderILb1ELb1EE5GetI1Ev.exit10
  %42 = getelementptr inbounds nuw i8, ptr %1, i64 1
  %43 = load i8, ptr %42, align 1
  %44 = icmp eq i8 %22, %43
  br i1 %44, label %45, label %53

45:                                               ; preds = %41
  %46 = getelementptr inbounds nuw i8, ptr %1, i64 2
  %47 = load i8, ptr %46, align 1
  %48 = icmp eq i8 %30, %47
  br i1 %48, label %49, label %53

49:                                               ; preds = %45
  %50 = getelementptr inbounds nuw i8, ptr %1, i64 3
  %51 = load i8, ptr %50, align 1
  %52 = icmp eq i8 %38, %51
  br label %53

53:                                               ; preds = %49, %45, %41, %_ZN6Assimp12StreamReaderILb1ELb1EE5GetI1Ev.exit10
  %54 = phi i1 [ false, %45 ], [ false, %41 ], [ false, %_ZN6Assimp12StreamReaderILb1ELb1EE5GetI1Ev.exit10 ], [ %52, %49 ]
  ret i1 %54
}